target datalayout = "e-m:e-p270:32:32-p271:32:32-p272:64:64-i64:64-i128:128-f80:128-n8:16:32:64-S128"
target triple = "x86_64-pc-linux-gnu"

%"class.cv::Mat" = type { i32, i32, i32, i32, ptr, ptr, ptr, ptr, ptr, ptr, %"struct.cv::MatSize", %"struct.cv::MatStep" }
%"struct.cv::MatSize" = type { ptr }
%"struct.cv::MatStep" = type { ptr, [2 x i64] }
%"struct.std::_Vector_base.16" = type { %"struct.std::_Vector_base<cv::Mat, std::allocator<cv::Mat>>::_Vector_impl" }
%"struct.std::_Vector_base<cv::Mat, std::allocator<cv::Mat>>::_Vector_impl" = type { %"struct.std::_Vector_base<cv::Mat, std::allocator<cv::Mat>>::_Vector_impl_data" }
%"struct.std::_Vector_base<cv::Mat, std::allocator<cv::Mat>>::_Vector_impl_data" = type { ptr, ptr, ptr }
%"class.cv::Size_" = type { i32, i32 }
%"class.cv::dpm::ParalComputeRootPCAScores" = type { %"class.cv::ParallelLoopBody", ptr, ptr, i32, ptr }
%"class.cv::ParallelLoopBody" = type { ptr }
%"class.cv::Range" = type { i32, i32 }
%"class.cv::MatExpr" = type { ptr, i32, %"class.cv::Mat", %"class.cv::Mat", %"class.cv::Mat", double, double, %"class.cv::Scalar_" }
%"class.cv::Scalar_" = type { %"class.cv::Vec" }
%"class.cv::Vec" = type { %"class.cv::Matx" }
%"class.cv::Matx" = type { [4 x double] }
%"class.cv::dpm::ConvolutionEngine" = type { i8 }

; Function Attrs: mustprogress nounwind uwtable
define linkonce_odr hidden void @_ZN2cv3dpm17ConvolutionEngineD2Ev(ptr noundef nonnull align 1 dereferenceable(1) %0) unnamed_addr #6 comdat align 2 {
  %2 = alloca ptr, align 8
  store ptr %0, ptr %2, align 8, !tbaa !172
  ret void
}

; Function Attrs: mustprogress nounwind uwtable
define linkonce_odr hidden noundef nonnull align 8 dereferenceable(96) ptr @_ZNSt6vectorIN2cv3MatESaIS1_EEixEm(ptr noundef nonnull align 8 dereferenceable(24) %0, i64 noundef %1) #6 comdat align 2 {
  %3 = alloca ptr, align 8
  %4 = alloca i64, align 8
  store ptr %0, ptr %3, align 8, !tbaa !75
  store i64 %1, ptr %4, align 8, !tbaa !82
  %5 = load ptr, ptr %3, align 8
  %6 = getelementptr inbounds nuw %"struct.std::_Vector_base.16", ptr %5, i32 0, i32 0
  %7 = getelementptr inbounds nuw %"struct.std::_Vector_base<cv::Mat, std::allocator<cv::Mat>>::_Vector_impl_data", ptr %6, i32 0, i32 0
  %8 = load ptr, ptr %7, align 8, !tbaa !78
  %9 = load i64, ptr %4, align 8, !tbaa !82
  %10 = getelementptr inbounds nuw %"class.cv::Mat", ptr %8, i64 %9
  ret ptr %10
}

; Function Attrs: mustprogress nounwind uwtable
define linkonce_odr hidden void @_ZN2cv3dpm17ConvolutionEngineC2Ev(ptr noundef nonnull align 1 dereferenceable(1) %0) unnamed_addr #6 comdat align 2 {
  %2 = alloca ptr, align 8
  store ptr %0, ptr %2, align 8, !tbaa !172
  ret void
}

; Function Attrs: inlinehint mustprogress uwtable
define linkonce_odr hidden void @_ZNK2cv7MatExprcvNS_3MatEEv(ptr dead_on_unwind noalias writable sret(%"class.cv::Mat") align 8 %0, ptr noundef nonnull align 8 dereferenceable(352) %1) #8 comdat align 2 personality ptr @__gxx_personality_v0 {
  %3 = alloca ptr, align 8
  %4 = alloca ptr, align 8
  %5 = alloca i1, align 1
  %6 = alloca ptr, align 8
  %7 = alloca i32, align 4
  store ptr %0, ptr %3, align 8
  store ptr %1, ptr %4, align 8, !tbaa !164
  %8 = load ptr, ptr %4, align 8
  store i1 false, ptr %5, align 1
  call void @_ZN2cv3MatC1Ev(ptr noundef nonnull align 8 dereferenceable(96) %0) #3
  %9 = getelementptr inbounds nuw %"class.cv::MatExpr", ptr %8, i32 0, i32 0
  %10 = load ptr, ptr %9, align 8, !tbaa !166
  %11 = load ptr, ptr %10, align 8, !tbaa !152
  %12 = getelementptr inbounds ptr, ptr %11, i64 3
  %13 = load ptr, ptr %12, align 8
  invoke void %13(ptr noundef nonnull align 8 dereferenceable(8) %10, ptr noundef nonnull align 8 dereferenceable(352) %8, ptr noundef nonnull align 8 dereferenceable(96) %0, i32 noundef -1)
          to label %14 unwind label %16

14:                                               ; preds = %2
  store i1 true, ptr %5, align 1
  %15 = load i1, ptr %5, align 1
  br i1 %15, label %21, label %20

16:                                               ; preds = %2
  %17 = landingpad { ptr, i32 }
          cleanup
  %18 = extractvalue { ptr, i32 } %17, 0
  store ptr %18, ptr %6, align 8
  %19 = extractvalue { ptr, i32 } %17, 1
  store i32 %19, ptr %7, align 4
  call void @_ZN2cv3MatD1Ev(ptr noundef nonnull align 8 dereferenceable(96) %0) #3
  br label %22

20:                                               ; preds = %14
  call void @_ZN2cv3MatD1Ev(ptr noundef nonnull align 8 dereferenceable(96) %0) #3
  br label %21

21:                                               ; preds = %20, %14
  ret void

22:                                               ; preds = %16
  %23 = load ptr, ptr %6, align 8
  %24 = load i32, ptr %7, align 4
  %25 = insertvalue { ptr, i32 } poison, ptr %23, 0
  %26 = insertvalue { ptr, i32 } %25, i32 %24, 1
  resume { ptr, i32 } %26
}

; Function Attrs: inlinehint mustprogress nounwind uwtable
define linkonce_odr hidden void @_ZN2cv5Size_IiEC2Eii(ptr noundef nonnull align 4 dereferenceable(8) %0, i32 noundef %1, i32 noundef %2) unnamed_addr #10 comdat align 2 {
  %4 = alloca ptr, align 8
  %5 = alloca i32, align 4
  %6 = alloca i32, align 4
  store ptr %0, ptr %4, align 8, !tbaa !163
  store i32 %1, ptr %5, align 4, !tbaa !14
  store i32 %2, ptr %6, align 4, !tbaa !14
  %7 = load ptr, ptr %4, align 8
  %8 = getelementptr inbounds nuw %"class.cv::Size_", ptr %7, i32 0, i32 0
  %9 = load i32, ptr %5, align 4, !tbaa !14
  store i32 %9, ptr %8, align 4, !tbaa !117
  %10 = getelementptr inbounds nuw %"class.cv::Size_", ptr %7, i32 0, i32 1
  %11 = load i32, ptr %6, align 4, !tbaa !14
  store i32 %11, ptr %10, align 4, !tbaa !119
  ret void
}

; Function Attrs: mustprogress nounwind uwtable
define linkonce_odr hidden noundef nonnull align 8 dereferenceable(96) ptr @_ZNKSt6vectorIN2cv3MatESaIS1_EEixEm(ptr noundef nonnull align 8 dereferenceable(24) %0, i64 noundef %1) #6 comdat align 2 {
  %3 = alloca ptr, align 8
  %4 = alloca i64, align 8
  store ptr %0, ptr %3, align 8, !tbaa !75
  store i64 %1, ptr %4, align 8, !tbaa !82
  %5 = load ptr, ptr %3, align 8
  %6 = getelementptr inbounds nuw %"struct.std::_Vector_base.16", ptr %5, i32 0, i32 0
  %7 = getelementptr inbounds nuw %"struct.std::_Vector_base<cv::Mat, std::allocator<cv::Mat>>::_Vector_impl_data", ptr %6, i32 0, i32 0
  %8 = load ptr, ptr %7, align 8, !tbaa !78
  %9 = load i64, ptr %4, align 8, !tbaa !82
  %10 = getelementptr inbounds nuw %"class.cv::Mat", ptr %8, i64 %9
  ret ptr %10
}

; Function Attrs: mustprogress uwtable
define hidden void @_ZNK2cv3dpm25ParalComputeRootPCAScoresclERKNS_5RangeE(ptr noundef nonnull align 8 dereferenceable(40) %0, ptr noundef nonnull align 4 dereferenceable(8) %1) unnamed_addr #4 align 2 personality ptr @__gxx_personality_v0 {
  %3 = alloca ptr, align 8
  %4 = alloca ptr, align 8
  %5 = alloca i32, align 4
  %6 = alloca %"class.cv::Mat", align 8
  %7 = alloca i32, align 4
  %8 = alloca i32, align 4
  %9 = alloca %"class.cv::Mat", align 8
  %10 = alloca %"class.cv::MatExpr", align 8
  %11 = alloca %"class.cv::Size_", align 4
  %12 = alloca ptr, align 8
  %13 = alloca i32, align 4
  %14 = alloca %"class.cv::dpm::ConvolutionEngine", align 1
  store ptr %0, ptr %3, align 8, !tbaa !150
  store ptr %1, ptr %4, align 8, !tbaa !145
  %15 = load ptr, ptr %3, align 8
  call void @llvm.lifetime.start.p0(i64 4, ptr %5) #3
  %16 = load ptr, ptr %4, align 8, !tbaa !145
  %17 = getelementptr inbounds nuw %"class.cv::Range", ptr %16, i32 0, i32 0
  %18 = load i32, ptr %17, align 4, !tbaa !147
  store i32 %18, ptr %5, align 4, !tbaa !14
  br label %19

19:                                               ; preds = %70, %2
  %20 = load i32, ptr %5, align 4, !tbaa !14
  %21 = load ptr, ptr %4, align 8, !tbaa !145
  %22 = getelementptr inbounds nuw %"class.cv::Range", ptr %21, i32 0, i32 1
  %23 = load i32, ptr %22, align 4, !tbaa !149
  %24 = icmp ne i32 %20, %23
  br i1 %24, label %26, label %25

25:                                               ; preds = %19
  call void @llvm.lifetime.end.p0(i64 4, ptr %5) #3
  br label %92

26:                                               ; preds = %19
  call void @llvm.lifetime.start.p0(i64 96, ptr %6) #3
  %27 = getelementptr inbounds nuw %"class.cv::dpm::ParalComputeRootPCAScores", ptr %15, i32 0, i32 1
  %28 = load ptr, ptr %27, align 8, !tbaa !159
  %29 = load i32, ptr %5, align 4, !tbaa !14
  %30 = sext i32 %29 to i64
  %31 = call noundef nonnull align 8 dereferenceable(96) ptr @_ZNKSt6vectorIN2cv3MatESaIS1_EEixEm(ptr noundef nonnull align 8 dereferenceable(24) %28, i64 noundef %30) #3
  call void @_ZN2cv3MatC1ERKS0_(ptr noundef nonnull align 8 dereferenceable(96) %6, ptr noundef nonnull align 8 dereferenceable(96) %31)
  call void @llvm.lifetime.start.p0(i64 4, ptr %7) #3
  %32 = getelementptr inbounds nuw %"class.cv::Mat", ptr %6, i32 0, i32 2
  %33 = load i32, ptr %32, align 8, !tbaa !68
  %34 = getelementptr inbounds nuw %"class.cv::dpm::ParalComputeRootPCAScores", ptr %15, i32 0, i32 2
  %35 = load ptr, ptr %34, align 8, !tbaa !160
  %36 = getelementptr inbounds nuw %"class.cv::Mat", ptr %35, i32 0, i32 2
  %37 = load i32, ptr %36, align 8, !tbaa !68
  %38 = sub nsw i32 %33, %37
  %39 = add nsw i32 %38, 1
  store i32 %39, ptr %7, align 4, !tbaa !14
  call void @llvm.lifetime.start.p0(i64 4, ptr %8) #3
  %40 = getelementptr inbounds nuw %"class.cv::Mat", ptr %6, i32 0, i32 3
  %41 = load i32, ptr %40, align 4, !tbaa !67
  %42 = getelementptr inbounds nuw %"class.cv::dpm::ParalComputeRootPCAScores", ptr %15, i32 0, i32 2
  %43 = load ptr, ptr %42, align 8, !tbaa !160
  %44 = getelementptr inbounds nuw %"class.cv::Mat", ptr %43, i32 0, i32 3
  %45 = load i32, ptr %44, align 4, !tbaa !67
  %46 = sub nsw i32 %41, %45
  %47 = getelementptr inbounds nuw %"class.cv::dpm::ParalComputeRootPCAScores", ptr %15, i32 0, i32 3
  %48 = load i32, ptr %47, align 8, !tbaa !154
  %49 = sdiv i32 %46, %48
  %50 = add nsw i32 %49, 1
  store i32 %50, ptr %8, align 4, !tbaa !14
  call void @llvm.lifetime.start.p0(i64 96, ptr %9) #3
  call void @llvm.lifetime.start.p0(i64 352, ptr %10) #3
  %51 = load i32, ptr %8, align 4, !tbaa !14
  %52 = load i32, ptr %7, align 4, !tbaa !14
  invoke void @_ZN2cv5Size_IiEC2Eii(ptr noundef nonnull align 4 dereferenceable(8) %11, i32 noundef %51, i32 noundef %52)
          to label %53 unwind label %73

53:                                               ; preds = %26
  %54 = load i64, ptr %11, align 4
  invoke void @_ZN2cv3Mat5zerosENS_5Size_IiEEi(ptr dead_on_unwind writable sret(%"class.cv::MatExpr") align 8 %10, i64 %54, i32 noundef 6)
          to label %55 unwind label %73

55:                                               ; preds = %53
  invoke void @_ZNK2cv7MatExprcvNS_3MatEEv(ptr dead_on_unwind writable sret(%"class.cv::Mat") align 8 %9, ptr noundef nonnull align 8 dereferenceable(352) %10)
          to label %56 unwind label %77

56:                                               ; preds = %55
  call void @_ZN2cv7MatExprD2Ev(ptr noundef nonnull align 8 dereferenceable(352) %10) #3
  call void @llvm.lifetime.end.p0(i64 352, ptr %10) #3
  call void @llvm.lifetime.start.p0(i64 1, ptr %14) #3
  invoke void @_ZN2cv3dpm17ConvolutionEngineC2Ev(ptr noundef nonnull align 1 dereferenceable(1) %14)
          to label %57 unwind label %82

57:                                               ; preds = %56
  %58 = getelementptr inbounds nuw %"class.cv::dpm::ParalComputeRootPCAScores", ptr %15, i32 0, i32 2
  %59 = load ptr, ptr %58, align 8, !tbaa !160
  %60 = getelementptr inbounds nuw %"class.cv::dpm::ParalComputeRootPCAScores", ptr %15, i32 0, i32 3
  %61 = load i32, ptr %60, align 8, !tbaa !154
  invoke void @_ZN2cv3dpm17ConvolutionEngine8convolveERKNS_3MatES4_iRS2_(ptr noundef nonnull align 1 dereferenceable(1) %14, ptr noundef nonnull align 8 dereferenceable(96) %6, ptr noundef nonnull align 8 dereferenceable(96) %59, i32 noundef %61, ptr noundef nonnull align 8 dereferenceable(96) %9)
          to label %62 unwind label %86

62:                                               ; preds = %57
  %63 = getelementptr inbounds nuw %"class.cv::dpm::ParalComputeRootPCAScores", ptr %15, i32 0, i32 4
  %64 = load ptr, ptr %63, align 8, !tbaa !161
  %65 = load i32, ptr %5, align 4, !tbaa !14
  %66 = sext i32 %65 to i64
  %67 = call noundef nonnull align 8 dereferenceable(96) ptr @_ZNSt6vectorIN2cv3MatESaIS1_EEixEm(ptr noundef nonnull align 8 dereferenceable(24) %64, i64 noundef %66) #3
  %68 = invoke noundef nonnull align 8 dereferenceable(96) ptr @_ZN2cv3MataSERKS0_(ptr noundef nonnull align 8 dereferenceable(96) %67, ptr noundef nonnull align 8 dereferenceable(96) %9)
          to label %69 unwind label %86

69:                                               ; preds = %62
  call void @_ZN2cv3dpm17ConvolutionEngineD2Ev(ptr noundef nonnull align 1 dereferenceable(1) %14) #3
  call void @llvm.lifetime.end.p0(i64 1, ptr %14) #3
  call void @_ZN2cv3MatD1Ev(ptr noundef nonnull align 8 dereferenceable(96) %9) #3
  call void @llvm.lifetime.end.p0(i64 96, ptr %9) #3
  call void @llvm.lifetime.end.p0(i64 4, ptr %8) #3
  call void @llvm.lifetime.end.p0(i64 4, ptr %7) #3
  call void @_ZN2cv3MatD1Ev(ptr noundef nonnull align 8 dereferenceable(96) %6) #3
  call void @llvm.lifetime.end.p0(i64 96, ptr %6) #3
  br label %70

70:                                               ; preds = %69
  %71 = load i32, ptr %5, align 4, !tbaa !14
  %72 = add nsw i32 %71, 1
  store i32 %72, ptr %5, align 4, !tbaa !14
  br label %19, !llvm.loop !162

73:                                               ; preds = %53, %26
  %74 = landingpad { ptr, i32 }
          cleanup
  %75 = extractvalue { ptr, i32 } %74, 0
  store ptr %75, ptr %12, align 8
  %76 = extractvalue { ptr, i32 } %74, 1
  store i32 %76, ptr %13, align 4
  br label %81

77:                                               ; preds = %55
  %78 = landingpad { ptr, i32 }
          cleanup
  %79 = extractvalue { ptr, i32 } %78, 0
  store ptr %79, ptr %12, align 8
  %80 = extractvalue { ptr, i32 } %78, 1
  store i32 %80, ptr %13, align 4
  call void @_ZN2cv7MatExprD2Ev(ptr noundef nonnull align 8 dereferenceable(352) %10) #3
  br label %81

81:                                               ; preds = %77, %73
  call void @llvm.lifetime.end.p0(i64 352, ptr %10) #3
  br label %91

82:                                               ; preds = %56
  %83 = landingpad { ptr, i32 }
          cleanup
  %84 = extractvalue { ptr, i32 } %83, 0
  store ptr %84, ptr %12, align 8
  %85 = extractvalue { ptr, i32 } %83, 1
  store i32 %85, ptr %13, align 4
  br label %90

86:                                               ; preds = %62, %57
  %87 = landingpad { ptr, i32 }
          cleanup
  %88 = extractvalue { ptr, i32 } %87, 0
  store ptr %88, ptr %12, align 8
  %89 = extractvalue { ptr, i32 } %87, 1
  store i32 %89, ptr %13, align 4
  call void @_ZN2cv3dpm17ConvolutionEngineD2Ev(ptr noundef nonnull align 1 dereferenceable(1) %14) #3
  br label %90

90:                                               ; preds = %86, %82
  call void @llvm.lifetime.end.p0(i64 1, ptr %14) #3
  call void @_ZN2cv3MatD1Ev(ptr noundef nonnull align 8 dereferenceable(96) %9) #3
  br label %91

91:                                               ; preds = %90, %81
  call void @llvm.lifetime.end.p0(i64 96, ptr %9) #3
  call void @llvm.lifetime.end.p0(i64 4, ptr %8) #3
  call void @llvm.lifetime.end.p0(i64 4, ptr %7) #3
  call void @_ZN2cv3MatD1Ev(ptr noundef nonnull align 8 dereferenceable(96) %6) #3
  call void @llvm.lifetime.end.p0(i64 96, ptr %6) #3
  call void @llvm.lifetime.end.p0(i64 4, ptr %5) #3
  br label %93

92:                                               ; preds = %25
  ret void

93:                                               ; preds = %91
  %94 = load ptr, ptr %12, align 8
  %95 = load i32, ptr %13, align 4
  %96 = insertvalue { ptr, i32 } poison, ptr %94, 0
  %97 = insertvalue { ptr, i32 } %96, i32 %95, 1
  resume { ptr, i32 } %97
}