; Function Attrs: mustprogress uwtable
define hidden void @_ZNK2cv3dpm25ParalComputeRootPCAScoresclERKNS_5RangeE(ptr noundef nonnull readonly align 8 captures(none) dereferenceable(40) %0, ptr noundef nonnull readonly align 4 captures(none) dereferenceable(8) %1) unnamed_addr #3 align 2 personality ptr @__gxx_personality_v0 {
  %3 = alloca %"class.cv::Mat", align 8
  %4 = alloca %"class.cv::Mat", align 8
  %5 = alloca %"class.cv::MatExpr", align 8
  %6 = alloca %"class.cv::dpm::ConvolutionEngine", align 1
  %7 = load i32, ptr %1, align 4, !tbaa !137
  %8 = getelementptr inbounds nuw i8, ptr %1, i64 4
  %9 = load i32, ptr %8, align 4, !tbaa !139
  %.not16 = icmp eq i32 %7, %9
  br i1 %.not16, label %._crit_edge, label %.lr.ph

.lr.ph:                                           ; preds = %2
  %10 = getelementptr inbounds nuw i8, ptr %0, i64 8
  %11 = getelementptr inbounds nuw i8, ptr %3, i64 8
  %12 = getelementptr inbounds nuw i8, ptr %0, i64 16
  %13 = getelementptr inbounds nuw i8, ptr %3, i64 12
  %14 = getelementptr inbounds nuw i8, ptr %0, i64 24
  %15 = getelementptr inbounds nuw i8, ptr %5, i64 208
  %16 = getelementptr inbounds nuw i8, ptr %5, i64 112
  %17 = getelementptr inbounds nuw i8, ptr %5, i64 16
  %18 = getelementptr inbounds nuw i8, ptr %0, i64 32
  %19 = sext i32 %7 to i64
  br label %20

._crit_edge:                                      ; preds = %50, %2
  ret void

20:                                               ; preds = %.lr.ph, %50
  %indvars.iv = phi i64 [ %19, %.lr.ph ], [ %indvars.iv.next, %50 ]
  call void @llvm.lifetime.start.p0(i64 96, ptr nonnull %3) #20
  %21 = load ptr, ptr %10, align 8, !tbaa !141
  %22 = load ptr, ptr %21, align 8, !tbaa !15
  %23 = getelementptr inbounds nuw %"class.cv::Mat", ptr %22, i64 %indvars.iv
  call void @_ZN2cv3MatC1ERKS0_(ptr noundef nonnull align 8 dereferenceable(96) %3, ptr noundef nonnull align 8 dereferenceable(96) %23)
  %24 = load i32, ptr %11, align 8, !tbaa !78
  %25 = load ptr, ptr %12, align 8, !tbaa !142
  %26 = getelementptr inbounds nuw i8, ptr %25, i64 8
  %27 = load i32, ptr %26, align 8, !tbaa !78
  %28 = add i32 %24, 1
  %29 = sub i32 %28, %27
  %30 = load i32, ptr %13, align 4, !tbaa !77
  %31 = getelementptr inbounds nuw i8, ptr %25, i64 12
  %32 = load i32, ptr %31, align 4, !tbaa !77
  %33 = sub nsw i32 %30, %32
  %34 = load i32, ptr %14, align 8, !tbaa !134
  %35 = sdiv i32 %33, %34
  %36 = add nsw i32 %35, 1
  call void @llvm.lifetime.start.p0(i64 96, ptr nonnull %4) #20
  call void @llvm.lifetime.start.p0(i64 352, ptr nonnull %5) #20
  %.sroa.2.0.insert.ext = zext i32 %29 to i64
  %.sroa.2.0.insert.shift = shl nuw i64 %.sroa.2.0.insert.ext, 32
  %.sroa.0.0.insert.ext = zext i32 %36 to i64
  %.sroa.0.0.insert.insert = or disjoint i64 %.sroa.2.0.insert.shift, %.sroa.0.0.insert.ext
  invoke void @_ZN2cv3Mat5zerosENS_5Size_IiEEi(ptr dead_on_unwind nonnull writable sret(%"class.cv::MatExpr") align 8 %5, i64 %.sroa.0.0.insert.insert, i32 noundef 6)
          to label %37 unwind label %53

37:                                               ; preds = %20
  call void @_ZN2cv3MatC1Ev(ptr noundef nonnull align 8 dereferenceable(96) %4) #20
  %38 = load ptr, ptr %5, align 8, !tbaa !143, !noalias !149
  %39 = load ptr, ptr %38, align 8, !tbaa !130
  %40 = getelementptr inbounds nuw i8, ptr %39, i64 24
  %41 = load ptr, ptr %40, align 8
  invoke void %41(ptr noundef nonnull align 8 dereferenceable(8) %38, ptr noundef nonnull align 8 dereferenceable(352) %5, ptr noundef nonnull align 8 dereferenceable(96) %4, i32 noundef -1)
          to label %_ZNK2cv7MatExprcvNS_3MatEEv.exit unwind label %.body

.body:                                            ; preds = %37
  %42 = landingpad { ptr, i32 }
          cleanup
  call void @_ZN2cv3MatD1Ev(ptr noundef nonnull align 8 dereferenceable(96) %4) #20
  call void @_ZN2cv7MatExprD2Ev(ptr noundef nonnull align 8 dereferenceable(352) %5) #20
  br label %55

_ZNK2cv7MatExprcvNS_3MatEEv.exit:                 ; preds = %37
  call void @_ZN2cv3MatD1Ev(ptr noundef nonnull align 8 dereferenceable(96) %15) #20
  call void @_ZN2cv3MatD1Ev(ptr noundef nonnull align 8 dereferenceable(96) %16) #20
  call void @_ZN2cv3MatD1Ev(ptr noundef nonnull align 8 dereferenceable(96) %17) #20
  call void @llvm.lifetime.end.p0(i64 352, ptr nonnull %5) #20
  call void @llvm.lifetime.start.p0(i64 1, ptr nonnull %6) #20
  %43 = load ptr, ptr %12, align 8, !tbaa !142
  %44 = load i32, ptr %14, align 8, !tbaa !134
  invoke void @_ZN2cv3dpm17ConvolutionEngine8convolveERKNS_3MatES4_iRS2_(ptr noundef nonnull align 1 dereferenceable(1) %6, ptr noundef nonnull align 8 dereferenceable(96) %3, ptr noundef nonnull align 8 dereferenceable(96) %43, i32 noundef %44, ptr noundef nonnull align 8 dereferenceable(96) %4)
          to label %45 unwind label %56

45:                                               ; preds = %_ZNK2cv7MatExprcvNS_3MatEEv.exit
  %46 = load ptr, ptr %18, align 8, !tbaa !152
  %47 = load ptr, ptr %46, align 8, !tbaa !15
  %48 = getelementptr inbounds nuw %"class.cv::Mat", ptr %47, i64 %indvars.iv
  %49 = invoke noundef nonnull align 8 dereferenceable(96) ptr @_ZN2cv3MataSERKS0_(ptr noundef nonnull align 8 dereferenceable(96) %48, ptr noundef nonnull align 8 dereferenceable(96) %4)
          to label %50 unwind label %56

50:                                               ; preds = %45
  call void @llvm.lifetime.end.p0(i64 1, ptr nonnull %6) #20
  call void @_ZN2cv3MatD1Ev(ptr noundef nonnull align 8 dereferenceable(96) %4) #20
  call void @llvm.lifetime.end.p0(i64 96, ptr nonnull %4) #20
  call void @_ZN2cv3MatD1Ev(ptr noundef nonnull align 8 dereferenceable(96) %3) #20
  call void @llvm.lifetime.end.p0(i64 96, ptr nonnull %3) #20
  %indvars.iv.next = add nsw i64 %indvars.iv, 1
  %51 = load i32, ptr %8, align 4, !tbaa !139
  %52 = trunc nsw i64 %indvars.iv.next to i32
  %.not = icmp eq i32 %51, %52
  br i1 %.not, label %._crit_edge, label %20, !llvm.loop !153

53:                                               ; preds = %20
  %54 = landingpad { ptr, i32 }
          cleanup
  br label %55

55:                                               ; preds = %.body, %53
  %.pn = phi { ptr, i32 } [ %42, %.body ], [ %54, %53 ]
  call void @llvm.lifetime.end.p0(i64 352, ptr nonnull %5) #20
  br label %58

56:                                               ; preds = %45, %_ZNK2cv7MatExprcvNS_3MatEEv.exit
  %57 = landingpad { ptr, i32 }
          cleanup
  call void @llvm.lifetime.end.p0(i64 1, ptr nonnull %6) #20
  call void @_ZN2cv3MatD1Ev(ptr noundef nonnull align 8 dereferenceable(96) %4) #20
  br label %58

58:                                               ; preds = %56, %55
  %.pn14 = phi { ptr, i32 } [ %57, %56 ], [ %.pn, %55 ]
  call void @llvm.lifetime.end.p0(i64 96, ptr nonnull %4) #20
  call void @_ZN2cv3MatD1Ev(ptr noundef nonnull align 8 dereferenceable(96) %3) #20
  call void @llvm.lifetime.end.p0(i64 96, ptr nonnull %3) #20
  resume { ptr, i32 } %.pn14
}